; Function Attrs: mustprogress uwtable
define void @_ZN5Yosys9log_flushEv() local_unnamed_addr #4 {
  %1 = load ptr, ptr @_ZN5Yosys9log_filesE, align 8
  %2 = load ptr, ptr getelementptr inbounds (%"class.std::vector", ptr @_ZN5Yosys9log_filesE, i64 0, i32 0, i32 0, i32 0, i32 1), align 8
  %.not10 = icmp eq ptr %1, %2
  br i1 %.not10, label %._crit_edge, label %.lr.ph

.lr.ph:                                           ; preds = %0, %.lr.ph
  %.sroa.06.011 = phi ptr [ %5, %.lr.ph ], [ %1, %0 ]
  %3 = load ptr, ptr %.sroa.06.011, align 8
  %4 = tail call i32 @fflush(ptr noundef %3)
  %5 = getelementptr inbounds i8, ptr %.sroa.06.011, i64 8
  %.not = icmp eq ptr %5, %2
  br i1 %.not, label %._crit_edge, label %.lr.ph

._crit_edge:                                      ; preds = %.lr.ph, %0
  %6 = load ptr, ptr @_ZN5Yosys11log_streamsE, align 8
  %7 = load ptr, ptr getelementptr inbounds (%"class.std::vector.0", ptr @_ZN5Yosys11log_streamsE, i64 0, i32 0, i32 0, i32 0, i32 1), align 8
  %.not912 = icmp eq ptr %6, %7
  br i1 %.not912, label %._crit_edge16, label %.lr.ph15

.lr.ph15:                                         ; preds = %._crit_edge, %.lr.ph15
  %.sroa.02.013 = phi ptr [ %10, %.lr.ph15 ], [ %6, %._crit_edge ]
  %8 = load ptr, ptr %.sroa.02.013, align 8
  %9 = tail call noundef nonnull align 8 dereferenceable(8) ptr @_ZNSo5flushEv(ptr noundef nonnull align 8 dereferenceable(8) %8)
  %10 = getelementptr inbounds i8, ptr %.sroa.02.013, i64 8
  %.not9 = icmp eq ptr %10, %7
  br i1 %.not9, label %._crit_edge16, label %.lr.ph15

._crit_edge16:                                    ; preds = %.lr.ph15, %._crit_edge
  ret void
}